; Function Attrs: mustprogress uwtable
define noundef zeroext i1 @_ZN7testing8internal9DeathTest6CreateEPKcPKNS0_2REES3_iPPS1_(ptr noundef %0, ptr noundef %1, ptr noundef %2, i32 noundef %3, ptr noundef %4) local_unnamed_addr #4 align 2 personality ptr @__gxx_personality_v0 {
  %6 = load atomic i8, ptr @_ZGVZN7testing8UnitTest11GetInstanceEvE8instance acquire, align 8
  %7 = icmp eq i8 %6, 0
  br i1 %7, label %8, label %_ZN7testing8internal15GetUnitTestImplEv.exit, !prof !41

8:                                                ; preds = %5
  %9 = tail call i32 @__cxa_guard_acquire(ptr nonnull @_ZGVZN7testing8UnitTest11GetInstanceEvE8instance) #56
  %.not.i.i = icmp eq i32 %9, 0
  br i1 %.not.i.i, label %_ZN7testing8internal15GetUnitTestImplEv.exit, label %10

10:                                               ; preds = %8
  invoke void @_ZN7testing8UnitTestC1Ev(ptr noundef nonnull align 8 dereferenceable(72) @_ZZN7testing8UnitTest11GetInstanceEvE8instance)
          to label %11 unwind label %13

11:                                               ; preds = %10
  %12 = tail call i32 @__cxa_atexit(ptr nonnull @_ZN7testing8UnitTestD1Ev, ptr nonnull @_ZZN7testing8UnitTest11GetInstanceEvE8instance, ptr nonnull @__dso_handle) #56
  tail call void @__cxa_guard_release(ptr nonnull @_ZGVZN7testing8UnitTest11GetInstanceEvE8instance) #56
  br label %_ZN7testing8internal15GetUnitTestImplEv.exit

13:                                               ; preds = %10
  %14 = landingpad { ptr, i32 }
          cleanup
  tail call void @__cxa_guard_abort(ptr nonnull @_ZGVZN7testing8UnitTest11GetInstanceEvE8instance) #56
  resume { ptr, i32 } %14

_ZN7testing8internal15GetUnitTestImplEv.exit:     ; preds = %5, %8, %11
  %15 = load ptr, ptr getelementptr inbounds nuw (i8, ptr @_ZZN7testing8UnitTest11GetInstanceEvE8instance, i64 64), align 8, !tbaa !42
  %16 = getelementptr inbounds nuw i8, ptr %15, i64 472
  %17 = load ptr, ptr %16, align 8, !tbaa !1037
  %18 = load ptr, ptr %17, align 8, !tbaa !23
  %19 = getelementptr inbounds nuw i8, ptr %18, i64 16
  %20 = load ptr, ptr %19, align 8
  %21 = tail call noundef zeroext i1 %20(ptr noundef nonnull align 8 dereferenceable(8) %17, ptr noundef %0, ptr noundef %1, ptr noundef %2, i32 noundef %3, ptr noundef %4)
  ret i1 %21
}